; Function Attrs: nounwind uwtable
define internal i32 @ml_dsa_has(ptr noundef %0, i32 noundef %1) #0 {
  %3 = tail call i32 @ossl_prov_is_running() #6
  %4 = icmp eq i32 %3, 0
  %5 = icmp eq ptr %0, null
  %or.cond = or i1 %5, %4
  br i1 %or.cond, label %11, label %6

6:                                                ; preds = %2
  %7 = and i32 %1, 3
  %8 = icmp eq i32 %7, 0
  br i1 %8, label %11, label %9

9:                                                ; preds = %6
  %10 = tail call i32 @ossl_ml_dsa_key_has(ptr noundef nonnull %0, i32 noundef %1) #6
  br label %11

11:                                               ; preds = %6, %2, %9
  %.0 = phi i32 [ %10, %9 ], [ 0, %2 ], [ 1, %6 ]
  ret i32 %.0
}